target datalayout = "e-m:e-p270:32:32-p271:32:32-p272:64:64-i64:64-i128:128-f80:128-n8:16:32:64-S128"
target triple = "x86_64-pc-linux-gnu"

%struct.FunctionCallInfoBaseData = type { ptr, ptr, ptr, i32, i8, i16, [0 x %struct.NullableDatum] }
%struct.NullableDatum = type { i64, i8 }

@.str = private unnamed_addr constant [34 x i8] c"permission denied to cancel query\00", align 1
@.str.1 = private unnamed_addr constant [84 x i8] c"Only roles with the %s attribute may cancel queries of roles with the %s attribute.\00", align 1
@.str.2 = private unnamed_addr constant [10 x i8] c"SUPERUSER\00", align 1
@.str.3 = private unnamed_addr constant [14 x i8] c"signalfuncs.c\00", align 1
@__func__.pg_cancel_backend = private unnamed_addr constant [18 x i8] c"pg_cancel_backend\00", align 1
@.str.4 = private unnamed_addr constant [75 x i8] c"Only roles with privileges of the \22%s\22 role may cancel autovacuum workers.\00", align 1
@.str.5 = private unnamed_addr constant [28 x i8] c"pg_signal_autovacuum_worker\00", align 1
@.str.6 = private unnamed_addr constant [128 x i8] c"Only roles with privileges of the role whose query is being canceled or with privileges of the \22%s\22 role may cancel this query.\00", align 1
@.str.7 = private unnamed_addr constant [18 x i8] c"pg_signal_backend\00", align 1

; Function Attrs: inlinehint nounwind uwtable
define internal i64 @BoolGetDatum(i1 noundef zeroext %0) #2 {
  %2 = alloca i8, align 1
  %3 = zext i1 %0 to i8
  store i8 %3, ptr %2, align 1
  %4 = load i8, ptr %2, align 1, !range !4, !noundef !5
  %5 = trunc i8 %4 to i1
  %6 = select i1 %5, i32 1, i32 0
  %7 = sext i32 %6 to i64
  ret i64 %7
}

; Function Attrs: inlinehint nounwind uwtable
define internal i32 @DatumGetInt32(i64 noundef %0) #2 {
  %2 = alloca i64, align 8
  store i64 %0, ptr %2, align 8
  %3 = load i64, ptr %2, align 8
  %4 = trunc i64 %3 to i32
  ret i32 %4
}

; Function Attrs: nounwind uwtable
define dso_local i64 @pg_cancel_backend(ptr noundef %0) #0 {
  %2 = alloca ptr, align 8
  %3 = alloca i32, align 4
  store ptr %0, ptr %2, align 8
  call void @llvm.lifetime.start.p0(i64 4, ptr %3) #8
  %4 = load ptr, ptr %2, align 8
  %5 = getelementptr inbounds nuw %struct.FunctionCallInfoBaseData, ptr %4, i32 0, i32 6
  %6 = getelementptr inbounds [0 x %struct.NullableDatum], ptr %5, i64 0, i64 0
  %7 = getelementptr inbounds nuw %struct.NullableDatum, ptr %6, i32 0, i32 0
  %8 = load i64, ptr %7, align 8
  %9 = call i32 @DatumGetInt32(i64 noundef %8)
  %10 = call i32 @pg_signal_backend(i32 noundef %9, i32 noundef 2)
  store i32 %10, ptr %3, align 4
  %11 = load i32, ptr %3, align 4
  %12 = icmp eq i32 %11, 3
  br i1 %12, label %13, label %26

13:                                               ; preds = %1
  br label %14

14:                                               ; preds = %13
  br i1 true, label %15, label %17

15:                                               ; preds = %14
  %16 = call zeroext i1 @errstart_cold(i32 noundef 21, ptr noundef null) #9
  br i1 %16, label %19, label %23

17:                                               ; preds = %14
  %18 = call zeroext i1 @errstart(i32 noundef 21, ptr noundef null)
  br i1 %18, label %19, label %23

19:                                               ; preds = %17, %15
  %20 = call i32 @errcode(i32 noundef 16797828)
  %21 = call i32 (ptr, ...) @errmsg(ptr noundef @.str)
  %22 = call i32 (ptr, ...) @errdetail(ptr noundef @.str.1, ptr noundef @.str.2, ptr noundef @.str.2)
  call void @errfinish(ptr noundef @.str.3, i32 noundef 145, ptr noundef @__func__.pg_cancel_backend)
  br label %23

23:                                               ; preds = %19, %17, %15
  unreachable

24:                                               ; No predecessors!
  br label %25

25:                                               ; preds = %24
  br label %26

26:                                               ; preds = %25, %1
  %27 = load i32, ptr %3, align 4
  %28 = icmp eq i32 %27, 4
  br i1 %28, label %29, label %42

29:                                               ; preds = %26
  br label %30

30:                                               ; preds = %29
  br i1 true, label %31, label %33

31:                                               ; preds = %30
  %32 = call zeroext i1 @errstart_cold(i32 noundef 21, ptr noundef null) #9
  br i1 %32, label %35, label %39

33:                                               ; preds = %30
  %34 = call zeroext i1 @errstart(i32 noundef 21, ptr noundef null)
  br i1 %34, label %35, label %39

35:                                               ; preds = %33, %31
  %36 = call i32 @errcode(i32 noundef 16797828)
  %37 = call i32 (ptr, ...) @errmsg(ptr noundef @.str)
  %38 = call i32 (ptr, ...) @errdetail(ptr noundef @.str.4, ptr noundef @.str.5)
  call void @errfinish(ptr noundef @.str.3, i32 noundef 152, ptr noundef @__func__.pg_cancel_backend)
  br label %39

39:                                               ; preds = %35, %33, %31
  unreachable

40:                                               ; No predecessors!
  br label %41

41:                                               ; preds = %40
  br label %42

42:                                               ; preds = %41, %26
  %43 = load i32, ptr %3, align 4
  %44 = icmp eq i32 %43, 2
  br i1 %44, label %45, label %58

45:                                               ; preds = %42
  br label %46

46:                                               ; preds = %45
  br i1 true, label %47, label %49

47:                                               ; preds = %46
  %48 = call zeroext i1 @errstart_cold(i32 noundef 21, ptr noundef null) #9
  br i1 %48, label %51, label %55

49:                                               ; preds = %46
  %50 = call zeroext i1 @errstart(i32 noundef 21, ptr noundef null)
  br i1 %50, label %51, label %55

51:                                               ; preds = %49, %47
  %52 = call i32 @errcode(i32 noundef 16797828)
  %53 = call i32 (ptr, ...) @errmsg(ptr noundef @.str)
  %54 = call i32 (ptr, ...) @errdetail(ptr noundef @.str.6, ptr noundef @.str.7)
  call void @errfinish(ptr noundef @.str.3, i32 noundef 159, ptr noundef @__func__.pg_cancel_backend)
  br label %55

55:                                               ; preds = %51, %49, %47
  unreachable

56:                                               ; No predecessors!
  br label %57

57:                                               ; preds = %56
  br label %58

58:                                               ; preds = %57, %42
  %59 = load i32, ptr %3, align 4
  %60 = icmp eq i32 %59, 0
  %61 = call i64 @BoolGetDatum(i1 noundef zeroext %60)
  call void @llvm.lifetime.end.p0(i64 4, ptr %3) #8
  ret i64 %61
}