; Function Attrs: nounwind uwtable
define dso_local range(i64 0, 2) i64 @pg_cancel_backend(ptr noundef readonly captures(none) %0) local_unnamed_addr #0 {
  %2 = getelementptr inbounds nuw i8, ptr %0, i64 32
  %3 = load i64, ptr %2, align 8
  %4 = trunc i64 %3 to i32
  %5 = tail call fastcc i32 @pg_signal_backend(i32 noundef %4, i32 noundef 2)
  switch i32 %5, label %21 [
    i32 3, label %6
    i32 4, label %11
    i32 2, label %16
  ]

6:                                                ; preds = %1
  %7 = tail call zeroext i1 @errstart_cold(i32 noundef 21, ptr noundef null) #7
  tail call void @llvm.assume(i1 %7)
  %8 = tail call i32 @errcode(i32 noundef 16797828) #8
  %9 = tail call i32 (ptr, ...) @errmsg(ptr noundef nonnull @.str) #8
  %10 = tail call i32 (ptr, ...) @errdetail(ptr noundef nonnull @.str.1, ptr noundef nonnull @.str.2, ptr noundef nonnull @.str.2) #8
  tail call void @errfinish(ptr noundef nonnull @.str.3, i32 noundef 145, ptr noundef nonnull @__func__.pg_cancel_backend) #8
  unreachable

11:                                               ; preds = %1
  %12 = tail call zeroext i1 @errstart_cold(i32 noundef 21, ptr noundef null) #7
  tail call void @llvm.assume(i1 %12)
  %13 = tail call i32 @errcode(i32 noundef 16797828) #8
  %14 = tail call i32 (ptr, ...) @errmsg(ptr noundef nonnull @.str) #8
  %15 = tail call i32 (ptr, ...) @errdetail(ptr noundef nonnull @.str.4, ptr noundef nonnull @.str.5) #8
  tail call void @errfinish(ptr noundef nonnull @.str.3, i32 noundef 152, ptr noundef nonnull @__func__.pg_cancel_backend) #8
  unreachable

16:                                               ; preds = %1
  %17 = tail call zeroext i1 @errstart_cold(i32 noundef 21, ptr noundef null) #7
  tail call void @llvm.assume(i1 %17)
  %18 = tail call i32 @errcode(i32 noundef 16797828) #8
  %19 = tail call i32 (ptr, ...) @errmsg(ptr noundef nonnull @.str) #8
  %20 = tail call i32 (ptr, ...) @errdetail(ptr noundef nonnull @.str.6, ptr noundef nonnull @.str.7) #8
  tail call void @errfinish(ptr noundef nonnull @.str.3, i32 noundef 159, ptr noundef nonnull @__func__.pg_cancel_backend) #8
  unreachable

21:                                               ; preds = %1
  %22 = icmp eq i32 %5, 0
  %23 = zext i1 %22 to i64
  ret i64 %23
}